target datalayout = "e-m:e-p270:32:32-p271:32:32-p272:64:64-i64:64-i128:128-f80:128-n8:16:32:64-S128"
target triple = "x86_64-pc-linux-gnu"

%"class.Imf_3_4::ChannelList::ConstIterator" = type { %"struct.std::_Rb_tree_const_iterator" }
%"struct.std::_Rb_tree_const_iterator" = type { ptr }
%"struct.Imf_3_4::Channel" = type <{ i32, i32, i32, i8, [3 x i8] }>
%"struct.std::pair" = type { %"class.Imf_3_4::Name", %"struct.Imf_3_4::Channel" }
%"class.Imf_3_4::Name" = type { [256 x i8] }
%"struct.std::_Vector_base" = type { %"struct.std::_Vector_base<int, std::allocator<int>>::_Vector_impl" }
%"struct.std::_Vector_base<int, std::allocator<int>>::_Vector_impl" = type { %"struct.std::_Vector_base<int, std::allocator<int>>::_Vector_impl_data" }
%"struct.std::_Vector_base<int, std::allocator<int>>::_Vector_impl_data" = type { ptr, ptr, ptr }
%"struct.std::_Vector_base.12" = type { %"struct.std::_Vector_base<unsigned long, std::allocator<unsigned long>>::_Vector_impl" }
%"struct.std::_Vector_base<unsigned long, std::allocator<unsigned long>>::_Vector_impl" = type { %"struct.std::_Vector_base<unsigned long, std::allocator<unsigned long>>::_Vector_impl_data" }
%"struct.std::_Vector_base<unsigned long, std::allocator<unsigned long>>::_Vector_impl_data" = type { ptr, ptr, ptr }
%"struct.std::_Rb_tree_node" = type { %"struct.std::_Rb_tree_node_base", %"struct.__gnu_cxx::__aligned_membuf" }
%"struct.std::_Rb_tree_node_base" = type { i32, ptr, ptr, ptr }
%"struct.__gnu_cxx::__aligned_membuf" = type { [272 x i8] }

; Function Attrs: mustprogress nounwind uwtable
define linkonce_odr hidden noundef ptr @_ZNK9__gnu_cxx16__aligned_membufISt4pairIKN7Imf_3_44NameENS2_7ChannelEEE7_M_addrEv(ptr noundef nonnull align 4 dereferenceable(272) %0) #8 comdat align 2 {
  %2 = alloca ptr, align 8
  store ptr %0, ptr %2, align 8, !tbaa !75
  %3 = load ptr, ptr %2, align 8
  %4 = getelementptr inbounds nuw %"struct.__gnu_cxx::__aligned_membuf", ptr %3, i32 0, i32 0
  ret ptr %4
}

; Function Attrs: mustprogress nounwind uwtable
define linkonce_odr hidden noundef ptr @_ZNK9__gnu_cxx16__aligned_membufISt4pairIKN7Imf_3_44NameENS2_7ChannelEEE6_M_ptrEv(ptr noundef nonnull align 4 dereferenceable(272) %0) #8 comdat align 2 {
  %2 = alloca ptr, align 8
  store ptr %0, ptr %2, align 8, !tbaa !75
  %3 = load ptr, ptr %2, align 8
  %4 = call noundef ptr @_ZNK9__gnu_cxx16__aligned_membufISt4pairIKN7Imf_3_44NameENS2_7ChannelEEE7_M_addrEv(ptr noundef nonnull align 4 dereferenceable(272) %3) #3
  ret ptr %4
}

; Function Attrs: noinline noreturn nounwind uwtable
define linkonce_odr hidden void @__clang_call_terminate(ptr noundef %0) #12 comdat {
  %2 = call ptr @__cxa_begin_catch(ptr %0) #3
  call void @_ZSt9terminatev() #17
  unreachable
}

; Function Attrs: mustprogress nounwind uwtable
define linkonce_odr hidden noundef ptr @_ZNKSt13_Rb_tree_nodeISt4pairIKN7Imf_3_44NameENS1_7ChannelEEE9_M_valptrEv(ptr noundef nonnull align 8 dereferenceable(304) %0) #8 comdat align 2 {
  %2 = alloca ptr, align 8
  store ptr %0, ptr %2, align 8, !tbaa !73
  %3 = load ptr, ptr %2, align 8
  %4 = getelementptr inbounds nuw %"struct.std::_Rb_tree_node", ptr %3, i32 0, i32 1
  %5 = call noundef ptr @_ZNK9__gnu_cxx16__aligned_membufISt4pairIKN7Imf_3_44NameENS2_7ChannelEEE6_M_ptrEv(ptr noundef nonnull align 4 dereferenceable(272) %4) #3
  ret ptr %5
}

; Function Attrs: mustprogress nounwind uwtable
define linkonce_odr noundef zeroext i1 @_ZSteqRKSt23_Rb_tree_const_iteratorISt4pairIKN7Imf_3_44NameENS1_7ChannelEEES8_(ptr noundef nonnull align 8 dereferenceable(8) %0, ptr noundef nonnull align 8 dereferenceable(8) %1) #8 comdat {
  %3 = alloca ptr, align 8
  %4 = alloca ptr, align 8
  store ptr %0, ptr %3, align 8, !tbaa !68
  store ptr %1, ptr %4, align 8, !tbaa !68
  %5 = load ptr, ptr %3, align 8, !tbaa !68
  %6 = getelementptr inbounds nuw %"struct.std::_Rb_tree_const_iterator", ptr %5, i32 0, i32 0
  %7 = load ptr, ptr %6, align 8, !tbaa !70
  %8 = load ptr, ptr %4, align 8, !tbaa !68
  %9 = getelementptr inbounds nuw %"struct.std::_Rb_tree_const_iterator", ptr %8, i32 0, i32 0
  %10 = load ptr, ptr %9, align 8, !tbaa !70
  %11 = icmp eq ptr %7, %10
  ret i1 %11
}

; Function Attrs: mustprogress nounwind uwtable
define linkonce_odr hidden noundef nonnull align 8 dereferenceable(8) ptr @_ZNSt23_Rb_tree_const_iteratorISt4pairIKN7Imf_3_44NameENS1_7ChannelEEEppEv(ptr noundef nonnull align 8 dereferenceable(8) %0) #8 comdat align 2 {
  %2 = alloca ptr, align 8
  store ptr %0, ptr %2, align 8, !tbaa !68
  %3 = load ptr, ptr %2, align 8
  %4 = getelementptr inbounds nuw %"struct.std::_Rb_tree_const_iterator", ptr %3, i32 0, i32 0
  %5 = load ptr, ptr %4, align 8, !tbaa !70
  %6 = call noundef ptr @_ZSt18_Rb_tree_incrementPKSt18_Rb_tree_node_base(ptr noundef %5) #18
  %7 = getelementptr inbounds nuw %"struct.std::_Rb_tree_const_iterator", ptr %3, i32 0, i32 0
  store ptr %6, ptr %7, align 8, !tbaa !70
  ret ptr %3
}

; Function Attrs: mustprogress nounwind uwtable
define linkonce_odr hidden noundef ptr @_ZNKSt23_Rb_tree_const_iteratorISt4pairIKN7Imf_3_44NameENS1_7ChannelEEEptEv(ptr noundef nonnull align 8 dereferenceable(8) %0) #8 comdat align 2 personality ptr @__gxx_personality_v0 {
  %2 = alloca ptr, align 8
  store ptr %0, ptr %2, align 8, !tbaa !68
  %3 = load ptr, ptr %2, align 8
  %4 = getelementptr inbounds nuw %"struct.std::_Rb_tree_const_iterator", ptr %3, i32 0, i32 0
  %5 = load ptr, ptr %4, align 8, !tbaa !70
  %6 = invoke noundef ptr @_ZNKSt13_Rb_tree_nodeISt4pairIKN7Imf_3_44NameENS1_7ChannelEEE9_M_valptrEv(ptr noundef nonnull align 8 dereferenceable(304) %5)
          to label %7 unwind label %8

7:                                                ; preds = %1
  ret ptr %6

8:                                                ; preds = %1
  %9 = landingpad { ptr, i32 }
          catch ptr null
  %10 = extractvalue { ptr, i32 } %9, 0
  call void @__clang_call_terminate(ptr %10) #17
  unreachable
}

; Function Attrs: inlinehint mustprogress nounwind uwtable
define linkonce_odr hidden noundef zeroext i1 @_ZN7Imf_3_4eqERKNS_11ChannelList13ConstIteratorES3_(ptr noundef nonnull align 8 dereferenceable(8) %0, ptr noundef nonnull align 8 dereferenceable(8) %1) #6 comdat {
  %3 = alloca ptr, align 8
  %4 = alloca ptr, align 8
  store ptr %0, ptr %3, align 8, !tbaa !40
  store ptr %1, ptr %4, align 8, !tbaa !40
  %5 = load ptr, ptr %3, align 8, !tbaa !40
  %6 = getelementptr inbounds nuw %"class.Imf_3_4::ChannelList::ConstIterator", ptr %5, i32 0, i32 0
  %7 = load ptr, ptr %4, align 8, !tbaa !40
  %8 = getelementptr inbounds nuw %"class.Imf_3_4::ChannelList::ConstIterator", ptr %7, i32 0, i32 0
  %9 = call noundef zeroext i1 @_ZSteqRKSt23_Rb_tree_const_iteratorISt4pairIKN7Imf_3_44NameENS1_7ChannelEEES8_(ptr noundef nonnull align 8 dereferenceable(8) %6, ptr noundef nonnull align 8 dereferenceable(8) %8) #3
  ret i1 %9
}

; Function Attrs: inlinehint mustprogress nounwind uwtable
define linkonce_odr noundef nonnull align 8 dereferenceable(8) ptr @_ZN7Imf_3_411ChannelList13ConstIteratorppEv(ptr noundef nonnull align 8 dereferenceable(8) %0) #6 comdat align 2 {
  %2 = alloca ptr, align 8
  store ptr %0, ptr %2, align 8, !tbaa !40
  %3 = load ptr, ptr %2, align 8
  %4 = getelementptr inbounds nuw %"class.Imf_3_4::ChannelList::ConstIterator", ptr %3, i32 0, i32 0
  %5 = call noundef nonnull align 8 dereferenceable(8) ptr @_ZNSt23_Rb_tree_const_iteratorISt4pairIKN7Imf_3_44NameENS1_7ChannelEEEppEv(ptr noundef nonnull align 8 dereferenceable(8) %4) #3
  ret ptr %3
}

; Function Attrs: mustprogress nounwind uwtable
define linkonce_odr hidden noundef nonnull align 8 dereferenceable(8) ptr @_ZNSt6vectorImSaImEEixEm(ptr noundef nonnull align 8 dereferenceable(24) %0, i64 noundef %1) #8 comdat align 2 {
  %3 = alloca ptr, align 8
  %4 = alloca i64, align 8
  store ptr %0, ptr %3, align 8, !tbaa !46
  store i64 %1, ptr %4, align 8, !tbaa !26
  %5 = load ptr, ptr %3, align 8
  %6 = getelementptr inbounds nuw %"struct.std::_Vector_base.12", ptr %5, i32 0, i32 0
  %7 = getelementptr inbounds nuw %"struct.std::_Vector_base<unsigned long, std::allocator<unsigned long>>::_Vector_impl_data", ptr %6, i32 0, i32 0
  %8 = load ptr, ptr %7, align 8, !tbaa !53
  %9 = load i64, ptr %4, align 8, !tbaa !26
  %10 = getelementptr inbounds nuw i64, ptr %8, i64 %9
  ret ptr %10
}

; Function Attrs: inlinehint mustprogress nounwind uwtable
define linkonce_odr noundef nonnull align 4 dereferenceable(13) ptr @_ZNK7Imf_3_411ChannelList13ConstIterator7channelEv(ptr noundef nonnull align 8 dereferenceable(8) %0) #6 comdat align 2 {
  %2 = alloca ptr, align 8
  store ptr %0, ptr %2, align 8, !tbaa !40
  %3 = load ptr, ptr %2, align 8
  %4 = getelementptr inbounds nuw %"class.Imf_3_4::ChannelList::ConstIterator", ptr %3, i32 0, i32 0
  %5 = call noundef ptr @_ZNKSt23_Rb_tree_const_iteratorISt4pairIKN7Imf_3_44NameENS1_7ChannelEEEptEv(ptr noundef nonnull align 8 dereferenceable(8) %4) #3
  %6 = getelementptr inbounds nuw %"struct.std::pair", ptr %5, i32 0, i32 1
  ret ptr %6
}

; Function Attrs: inlinehint mustprogress nounwind uwtable
define linkonce_odr hidden noundef nonnull align 4 dereferenceable(4) ptr @_ZN7Imf_3_411sampleCountEPciiii(ptr noundef %0, i32 noundef %1, i32 noundef %2, i32 noundef %3, i32 noundef %4) #6 comdat {
  %6 = alloca ptr, align 8
  %7 = alloca i32, align 4
  %8 = alloca i32, align 4
  %9 = alloca i32, align 4
  %10 = alloca i32, align 4
  %11 = alloca ptr, align 8
  %12 = alloca ptr, align 8
  store ptr %0, ptr %6, align 8, !tbaa !42
  store i32 %1, ptr %7, align 4, !tbaa !3
  store i32 %2, ptr %8, align 4, !tbaa !3
  store i32 %3, ptr %9, align 4, !tbaa !3
  store i32 %4, ptr %10, align 4, !tbaa !3
  call void @llvm.lifetime.start.p0(i64 8, ptr %11) #3
  %13 = load ptr, ptr %6, align 8, !tbaa !42
  %14 = load i32, ptr %10, align 4, !tbaa !3
  %15 = sext i32 %14 to i64
  %16 = load i32, ptr %8, align 4, !tbaa !3
  %17 = sext i32 %16 to i64
  %18 = mul nsw i64 %15, %17
  %19 = getelementptr inbounds i8, ptr %13, i64 %18
  %20 = load i32, ptr %9, align 4, !tbaa !3
  %21 = sext i32 %20 to i64
  %22 = load i32, ptr %7, align 4, !tbaa !3
  %23 = sext i32 %22 to i64
  %24 = mul nsw i64 %21, %23
  %25 = getelementptr inbounds i8, ptr %19, i64 %24
  store ptr %25, ptr %11, align 8, !tbaa !42
  call void @llvm.lifetime.start.p0(i64 8, ptr %12) #3
  %26 = load ptr, ptr %11, align 8, !tbaa !42
  store ptr %26, ptr %12, align 8, !tbaa !9
  %27 = load ptr, ptr %12, align 8, !tbaa !9
  call void @llvm.lifetime.end.p0(i64 8, ptr %12) #3
  call void @llvm.lifetime.end.p0(i64 8, ptr %11) #3
  ret ptr %27
}

; Function Attrs: mustprogress nounwind uwtable
define linkonce_odr hidden noundef nonnull align 4 dereferenceable(4) ptr @_ZNSt6vectorIiSaIiEEixEm(ptr noundef nonnull align 8 dereferenceable(24) %0, i64 noundef %1) #8 comdat align 2 {
  %3 = alloca ptr, align 8
  %4 = alloca i64, align 8
  store ptr %0, ptr %3, align 8, !tbaa !44
  store i64 %1, ptr %4, align 8, !tbaa !26
  %5 = load ptr, ptr %3, align 8
  %6 = getelementptr inbounds nuw %"struct.std::_Vector_base", ptr %5, i32 0, i32 0
  %7 = getelementptr inbounds nuw %"struct.std::_Vector_base<int, std::allocator<int>>::_Vector_impl_data", ptr %6, i32 0, i32 0
  %8 = load ptr, ptr %7, align 8, !tbaa !51
  %9 = load i64, ptr %4, align 8, !tbaa !26
  %10 = getelementptr inbounds nuw i32, ptr %8, i64 %9
  ret ptr %10
}

; Function Attrs: inlinehint mustprogress uwtable
define linkonce_odr hidden noundef zeroext i1 @_ZN7Imf_3_4neERKNS_11ChannelList13ConstIteratorES3_(ptr noundef nonnull align 8 dereferenceable(8) %0, ptr noundef nonnull align 8 dereferenceable(8) %1) #7 comdat {
  %3 = alloca ptr, align 8
  %4 = alloca ptr, align 8
  store ptr %0, ptr %3, align 8, !tbaa !40
  store ptr %1, ptr %4, align 8, !tbaa !40
  %5 = load ptr, ptr %3, align 8, !tbaa !40
  %6 = load ptr, ptr %4, align 8, !tbaa !40
  %7 = call noundef zeroext i1 @_ZN7Imf_3_4eqERKNS_11ChannelList13ConstIteratorES3_(ptr noundef nonnull align 8 dereferenceable(8) %5, ptr noundef nonnull align 8 dereferenceable(8) %6)
  %8 = xor i1 %7, true
  ret i1 %8
}

; Function Attrs: mustprogress uwtable
define void @_ZN7Imf_3_421calculateBytesPerLineERKNS_6HeaderEPciiiiiiRSt6vectorIiSaIiEES7_RS4_ImSaImEE(ptr noundef nonnull align 8 dereferenceable(49) %0, ptr noundef %1, i32 noundef %2, i32 noundef %3, i32 noundef %4, i32 noundef %5, i32 noundef %6, i32 noundef %7, ptr noundef nonnull align 8 dereferenceable(24) %8, ptr noundef nonnull align 8 dereferenceable(24) %9, ptr noundef nonnull align 8 dereferenceable(24) %10) #4 {
  %12 = alloca ptr, align 8
  %13 = alloca ptr, align 8
  %14 = alloca i32, align 4
  %15 = alloca i32, align 4
  %16 = alloca i32, align 4
  %17 = alloca i32, align 4
  %18 = alloca i32, align 4
  %19 = alloca i32, align 4
  %20 = alloca ptr, align 8
  %21 = alloca ptr, align 8
  %22 = alloca ptr, align 8
  %23 = alloca ptr, align 8
  %24 = alloca i32, align 4
  %25 = alloca %"class.Imf_3_4::ChannelList::ConstIterator", align 8
  %26 = alloca %"class.Imf_3_4::ChannelList::ConstIterator", align 8
  %27 = alloca i32, align 4
  %28 = alloca i32, align 4
  %29 = alloca i32, align 4
  %30 = alloca i32, align 4
  %31 = alloca i32, align 4
  %32 = alloca i32, align 4
  store ptr %0, ptr %12, align 8, !tbaa !30
  store ptr %1, ptr %13, align 8, !tbaa !42
  store i32 %2, ptr %14, align 4, !tbaa !3
  store i32 %3, ptr %15, align 4, !tbaa !3
  store i32 %4, ptr %16, align 4, !tbaa !3
  store i32 %5, ptr %17, align 4, !tbaa !3
  store i32 %6, ptr %18, align 4, !tbaa !3
  store i32 %7, ptr %19, align 4, !tbaa !3
  store ptr %8, ptr %20, align 8, !tbaa !44
  store ptr %9, ptr %21, align 8, !tbaa !44
  store ptr %10, ptr %22, align 8, !tbaa !46
  call void @llvm.lifetime.start.p0(i64 8, ptr %23) #3
  %33 = load ptr, ptr %12, align 8, !tbaa !30
  %34 = call noundef nonnull align 8 dereferenceable(48) ptr @_ZNK7Imf_3_46Header8channelsEv(ptr noundef nonnull align 8 dereferenceable(49) %33)
  store ptr %34, ptr %23, align 8, !tbaa !32
  call void @llvm.lifetime.start.p0(i64 4, ptr %24) #3
  store i32 0, ptr %24, align 4, !tbaa !3
  call void @llvm.lifetime.start.p0(i64 8, ptr %25) #3
  %35 = load ptr, ptr %23, align 8, !tbaa !32
  %36 = call ptr @_ZNK7Imf_3_411ChannelList5beginEv(ptr noundef nonnull align 8 dereferenceable(48) %35)
  %37 = getelementptr inbounds nuw %"class.Imf_3_4::ChannelList::ConstIterator", ptr %25, i32 0, i32 0
  %38 = getelementptr inbounds nuw %"struct.std::_Rb_tree_const_iterator", ptr %37, i32 0, i32 0
  store ptr %36, ptr %38, align 8
  br label %39

39:                                               ; preds = %108, %11
  call void @llvm.lifetime.start.p0(i64 8, ptr %26) #3
  %40 = load ptr, ptr %23, align 8, !tbaa !32
  %41 = call ptr @_ZNK7Imf_3_411ChannelList3endEv(ptr noundef nonnull align 8 dereferenceable(48) %40)
  %42 = getelementptr inbounds nuw %"class.Imf_3_4::ChannelList::ConstIterator", ptr %26, i32 0, i32 0
  %43 = getelementptr inbounds nuw %"struct.std::_Rb_tree_const_iterator", ptr %42, i32 0, i32 0
  store ptr %41, ptr %43, align 8
  %44 = call noundef zeroext i1 @_ZN7Imf_3_4neERKNS_11ChannelList13ConstIteratorES3_(ptr noundef nonnull align 8 dereferenceable(8) %25, ptr noundef nonnull align 8 dereferenceable(8) %26)
  call void @llvm.lifetime.end.p0(i64 8, ptr %26) #3
  br i1 %44, label %46, label %45

45:                                               ; preds = %39
  store i32 2, ptr %27, align 4
  call void @llvm.lifetime.end.p0(i64 8, ptr %25) #3
  br label %112

46:                                               ; preds = %39
  call void @llvm.lifetime.start.p0(i64 4, ptr %28) #3
  %47 = load ptr, ptr %20, align 8, !tbaa !44
  %48 = load i32, ptr %24, align 4, !tbaa !3
  %49 = sext i32 %48 to i64
  %50 = call noundef nonnull align 4 dereferenceable(4) ptr @_ZNSt6vectorIiSaIiEEixEm(ptr noundef nonnull align 8 dereferenceable(24) %47, i64 noundef %49) #3
  %51 = load i32, ptr %50, align 4, !tbaa !3
  store i32 %51, ptr %28, align 4, !tbaa !3
  call void @llvm.lifetime.start.p0(i64 4, ptr %29) #3
  %52 = load ptr, ptr %21, align 8, !tbaa !44
  %53 = load i32, ptr %24, align 4, !tbaa !3
  %54 = sext i32 %53 to i64
  %55 = call noundef nonnull align 4 dereferenceable(4) ptr @_ZNSt6vectorIiSaIiEEixEm(ptr noundef nonnull align 8 dereferenceable(24) %52, i64 noundef %54) #3
  %56 = load i32, ptr %55, align 4, !tbaa !3
  store i32 %56, ptr %29, align 4, !tbaa !3
  call void @llvm.lifetime.start.p0(i64 4, ptr %30) #3
  store i32 0, ptr %30, align 4, !tbaa !3
  call void @llvm.lifetime.start.p0(i64 4, ptr %31) #3
  %57 = load i32, ptr %18, align 4, !tbaa !3
  %58 = load i32, ptr %29, align 4, !tbaa !3
  %59 = sub nsw i32 %57, %58
  store i32 %59, ptr %31, align 4, !tbaa !3
  br label %60

60:                                               ; preds = %102, %46
  %61 = load i32, ptr %31, align 4, !tbaa !3
  %62 = load i32, ptr %19, align 4, !tbaa !3
  %63 = load i32, ptr %29, align 4, !tbaa !3
  %64 = sub nsw i32 %62, %63
  %65 = icmp sle i32 %61, %64
  br i1 %65, label %67, label %66

66:                                               ; preds = %60
  store i32 5, ptr %27, align 4
  call void @llvm.lifetime.end.p0(i64 4, ptr %31) #3
  br label %107

67:                                               ; preds = %60
  call void @llvm.lifetime.start.p0(i64 4, ptr %32) #3
  %68 = load i32, ptr %16, align 4, !tbaa !3
  %69 = load i32, ptr %28, align 4, !tbaa !3
  %70 = sub nsw i32 %68, %69
  store i32 %70, ptr %32, align 4, !tbaa !3
  br label %71

71:                                               ; preds = %98, %67
  %72 = load i32, ptr %32, align 4, !tbaa !3
  %73 = load i32, ptr %17, align 4, !tbaa !3
  %74 = load i32, ptr %28, align 4, !tbaa !3
  %75 = sub nsw i32 %73, %74
  %76 = icmp sle i32 %72, %75
  br i1 %76, label %78, label %77

77:                                               ; preds = %71
  store i32 8, ptr %27, align 4
  call void @llvm.lifetime.end.p0(i64 4, ptr %32) #3
  br label %101

78:                                               ; preds = %71
  %79 = load ptr, ptr %13, align 8, !tbaa !42
  %80 = load i32, ptr %14, align 4, !tbaa !3
  %81 = load i32, ptr %15, align 4, !tbaa !3
  %82 = load i32, ptr %32, align 4, !tbaa !3
  %83 = load i32, ptr %31, align 4, !tbaa !3
  %84 = call noundef nonnull align 4 dereferenceable(4) ptr @_ZN7Imf_3_411sampleCountEPciiii(ptr noundef %79, i32 noundef %80, i32 noundef %81, i32 noundef %82, i32 noundef %83)
  %85 = load i32, ptr %84, align 4, !tbaa !3
  %86 = call noundef nonnull align 4 dereferenceable(13) ptr @_ZNK7Imf_3_411ChannelList13ConstIterator7channelEv(ptr noundef nonnull align 8 dereferenceable(8) %25)
  %87 = getelementptr inbounds nuw %"struct.Imf_3_4::Channel", ptr %86, i32 0, i32 0
  %88 = load i32, ptr %87, align 4, !tbaa !34
  %89 = call noundef i32 @_ZN7Imf_3_413pixelTypeSizeENS_9PixelTypeE(i32 noundef %88)
  %90 = mul nsw i32 %85, %89
  %91 = sext i32 %90 to i64
  %92 = load ptr, ptr %22, align 8, !tbaa !46
  %93 = load i32, ptr %30, align 4, !tbaa !3
  %94 = sext i32 %93 to i64
  %95 = call noundef nonnull align 8 dereferenceable(8) ptr @_ZNSt6vectorImSaImEEixEm(ptr noundef nonnull align 8 dereferenceable(24) %92, i64 noundef %94) #3
  %96 = load i64, ptr %95, align 8, !tbaa !26
  %97 = add i64 %96, %91
  store i64 %97, ptr %95, align 8, !tbaa !26
  br label %98

98:                                               ; preds = %78
  %99 = load i32, ptr %32, align 4, !tbaa !3
  %100 = add nsw i32 %99, 1
  store i32 %100, ptr %32, align 4, !tbaa !3
  br label %71, !llvm.loop !48

101:                                              ; preds = %77
  br label %102

102:                                              ; preds = %101
  %103 = load i32, ptr %31, align 4, !tbaa !3
  %104 = add nsw i32 %103, 1
  store i32 %104, ptr %31, align 4, !tbaa !3
  %105 = load i32, ptr %30, align 4, !tbaa !3
  %106 = add nsw i32 %105, 1
  store i32 %106, ptr %30, align 4, !tbaa !3
  br label %60, !llvm.loop !49

107:                                              ; preds = %66
  call void @llvm.lifetime.end.p0(i64 4, ptr %30) #3
  call void @llvm.lifetime.end.p0(i64 4, ptr %29) #3
  call void @llvm.lifetime.end.p0(i64 4, ptr %28) #3
  br label %108

108:                                              ; preds = %107
  %109 = call noundef nonnull align 8 dereferenceable(8) ptr @_ZN7Imf_3_411ChannelList13ConstIteratorppEv(ptr noundef nonnull align 8 dereferenceable(8) %25)
  %110 = load i32, ptr %24, align 4, !tbaa !3
  %111 = add nsw i32 %110, 1
  store i32 %111, ptr %24, align 4, !tbaa !3
  br label %39, !llvm.loop !50

112:                                              ; preds = %45
  call void @llvm.lifetime.end.p0(i64 4, ptr %24) #3
  call void @llvm.lifetime.end.p0(i64 8, ptr %23) #3
  ret void
}