; Function Attrs: mustprogress uwtable
define void @_ZN7Imf_3_421calculateBytesPerLineERKNS_6HeaderEPciiiiiiRSt6vectorIiSaIiEES7_RS4_ImSaImEE(ptr noundef nonnull align 8 dereferenceable(49) %0, ptr noundef readonly captures(none) %1, i32 noundef %2, i32 noundef %3, i32 noundef %4, i32 noundef %5, i32 noundef %6, i32 noundef %7, ptr noundef nonnull readonly align 8 captures(none) dereferenceable(24) %8, ptr noundef nonnull readonly align 8 captures(none) dereferenceable(24) %9, ptr noundef nonnull readonly align 8 captures(none) dereferenceable(24) %10) local_unnamed_addr #3 personality ptr @__gxx_personality_v0 {
  %12 = tail call noundef nonnull align 8 dereferenceable(48) ptr @_ZNK7Imf_3_46Header8channelsEv(ptr noundef nonnull align 8 dereferenceable(49) %0)
  %13 = tail call ptr @_ZNK7Imf_3_411ChannelList5beginEv(ptr noundef nonnull align 8 dereferenceable(48) %12)
  %14 = tail call ptr @_ZNK7Imf_3_411ChannelList3endEv(ptr noundef nonnull align 8 dereferenceable(48) %12)
  %.not3443 = icmp eq ptr %13, %14
  br i1 %.not3443, label %._crit_edge48, label %.lr.ph47

.lr.ph47:                                         ; preds = %11
  %15 = sext i32 %3 to i64
  %16 = sext i32 %2 to i64
  %.not37 = icmp sgt i32 %6, %7
  %.not3035 = icmp sgt i32 %4, %5
  br label %17

._crit_edge48:                                    ; preds = %._crit_edge42, %11
  ret void

17:                                               ; preds = %.lr.ph47, %._crit_edge42
  %indvars.iv58 = phi i64 [ 0, %.lr.ph47 ], [ %indvars.iv.next59, %._crit_edge42 ]
  %.sroa.031.044 = phi ptr [ %13, %.lr.ph47 ], [ %33, %._crit_edge42 ]
  %18 = load ptr, ptr %9, align 8, !tbaa !21
  %19 = getelementptr inbounds nuw i32, ptr %18, i64 %indvars.iv58
  %20 = load i32, ptr %19, align 4, !tbaa !25
  %21 = sub nsw i32 %7, %20
  br i1 %.not37, label %._crit_edge42, label %.lr.ph41

.lr.ph41:                                         ; preds = %17
  %22 = getelementptr inbounds nuw i8, ptr %.sroa.031.044, i64 288
  br i1 %.not3035, label %._crit_edge42, label %.lr.ph.preheader

.lr.ph.preheader:                                 ; preds = %.lr.ph41
  %23 = load ptr, ptr %8, align 8, !tbaa !21
  %24 = getelementptr inbounds nuw i32, ptr %23, i64 %indvars.iv58
  %25 = load i32, ptr %24, align 4, !tbaa !25
  %26 = sub nsw i32 %5, %25
  %27 = sub i32 %4, %25
  %28 = sub i32 %6, %20
  %29 = sext i32 %27 to i64
  %30 = sext i32 %26 to i64
  %31 = sext i32 %28 to i64
  %32 = sext i32 %21 to i64
  br label %.lr.ph

._crit_edge42:                                    ; preds = %._crit_edge, %.lr.ph41, %17
  %33 = tail call noundef ptr @_ZSt18_Rb_tree_incrementPKSt18_Rb_tree_node_base(ptr noundef %.sroa.031.044) #15
  %indvars.iv.next59 = add nuw nsw i64 %indvars.iv58, 1
  %34 = tail call ptr @_ZNK7Imf_3_411ChannelList3endEv(ptr noundef nonnull align 8 dereferenceable(48) %12)
  %.not34 = icmp eq ptr %33, %34
  br i1 %.not34, label %._crit_edge48, label %17, !llvm.loop !26

.lr.ph:                                           ; preds = %.lr.ph.preheader, %._crit_edge
  %indvars.iv53 = phi i64 [ 0, %.lr.ph.preheader ], [ %indvars.iv.next54, %._crit_edge ]
  %indvars.iv51 = phi i64 [ %31, %.lr.ph.preheader ], [ %indvars.iv.next52, %._crit_edge ]
  %35 = mul nsw i64 %indvars.iv51, %15
  %36 = getelementptr inbounds i8, ptr %1, i64 %35
  br label %37

._crit_edge:                                      ; preds = %37
  %indvars.iv.next52 = add nsw i64 %indvars.iv51, 1
  %indvars.iv.next54 = add nuw nsw i64 %indvars.iv53, 1
  %.not.not = icmp slt i64 %indvars.iv51, %32
  br i1 %.not.not, label %.lr.ph, label %._crit_edge42, !llvm.loop !27

37:                                               ; preds = %.lr.ph, %37
  %indvars.iv = phi i64 [ %29, %.lr.ph ], [ %indvars.iv.next, %37 ]
  %38 = mul nsw i64 %indvars.iv, %16
  %39 = getelementptr inbounds i8, ptr %36, i64 %38
  %40 = load i32, ptr %39, align 4, !tbaa !25
  %41 = load i32, ptr %22, align 4, !tbaa !15
  %42 = tail call noundef i32 @_ZN7Imf_3_413pixelTypeSizeENS_9PixelTypeE(i32 noundef %41)
  %43 = mul nsw i32 %42, %40
  %44 = sext i32 %43 to i64
  %45 = load ptr, ptr %10, align 8, !tbaa !28
  %46 = getelementptr inbounds nuw i64, ptr %45, i64 %indvars.iv53
  %47 = load i64, ptr %46, align 8, !tbaa !31
  %48 = add i64 %47, %44
  store i64 %48, ptr %46, align 8, !tbaa !31
  %indvars.iv.next = add nsw i64 %indvars.iv, 1
  %.not30.not = icmp slt i64 %indvars.iv, %30
  br i1 %.not30.not, label %37, label %._crit_edge, !llvm.loop !33
}